target datalayout = "e-m:e-p270:32:32-p271:32:32-p272:64:64-i64:64-i128:128-f80:128-n8:16:32:64-S128"
target triple = "x86_64-pc-linux-gnu"

@.str.2 = private unnamed_addr constant [11 x i8] c"twophase.c\00", align 1
@.str.24 = private unnamed_addr constant [33 x i8] c"invalid two-phase transaction ID\00", align 1
@__func__.TwoPhaseTransactionGid = private unnamed_addr constant [23 x i8] c"TwoPhaseTransactionGid\00", align 1
@.str.25 = private unnamed_addr constant [13 x i8] c"pg_gid_%u_%u\00", align 1

; Function Attrs: nounwind uwtable
define dso_local void @TwoPhaseTransactionGid(i32 noundef %0, i32 noundef %1, ptr noundef %2, i32 noundef %3) #0 {
  %5 = alloca i32, align 4
  %6 = alloca i32, align 4
  %7 = alloca ptr, align 8
  %8 = alloca i32, align 4
  store i32 %0, ptr %5, align 4
  store i32 %1, ptr %6, align 4
  store ptr %2, ptr %7, align 8
  store i32 %3, ptr %8, align 4
  %9 = load i32, ptr %6, align 4
  %10 = icmp ne i32 %9, 0
  br i1 %10, label %22, label %11

11:                                               ; preds = %4
  br label %12

12:                                               ; preds = %11
  br i1 true, label %13, label %15

13:                                               ; preds = %12
  %14 = call zeroext i1 @errstart_cold(i32 noundef 21, ptr noundef null) #13
  br i1 %14, label %17, label %20

15:                                               ; preds = %12
  %16 = call zeroext i1 @errstart(i32 noundef 21, ptr noundef null)
  br i1 %16, label %17, label %20

17:                                               ; preds = %15, %13
  %18 = call i32 @errcode(i32 noundef 16908800)
  %19 = call i32 (ptr, ...) @errmsg_internal(ptr noundef @.str.24)
  call void @errfinish(ptr noundef @.str.2, i32 noundef 2689, ptr noundef @__func__.TwoPhaseTransactionGid)
  br label %20

20:                                               ; preds = %17, %15, %13
  unreachable

21:                                               ; No predecessors!
  br label %22

22:                                               ; preds = %21, %4
  %23 = load ptr, ptr %7, align 8
  %24 = load i32, ptr %8, align 4
  %25 = sext i32 %24 to i64
  %26 = load i32, ptr %5, align 4
  %27 = load i32, ptr %6, align 4
  %28 = call i32 (ptr, i64, ptr, ...) @pg_snprintf(ptr noundef %23, i64 noundef %25, ptr noundef @.str.25, i32 noundef %26, i32 noundef %27)
  ret void
}