; Function Attrs: nounwind uwtable
define dso_local void @TwoPhaseTransactionGid(i32 noundef %0, i32 noundef %1, ptr noundef %2, i32 noundef %3) local_unnamed_addr #0 {
  %.not = icmp eq i32 %1, 0
  br i1 %.not, label %5, label %9

5:                                                ; preds = %4
  %6 = tail call zeroext i1 @errstart_cold(i32 noundef 21, ptr noundef null) #15
  tail call void @llvm.assume(i1 %6)
  %7 = tail call i32 @errcode(i32 noundef 16908800) #14
  %8 = tail call i32 (ptr, ...) @errmsg_internal(ptr noundef nonnull @.str.24) #14
  tail call void @errfinish(ptr noundef nonnull @.str.2, i32 noundef 2689, ptr noundef nonnull @__func__.TwoPhaseTransactionGid) #14
  unreachable

9:                                                ; preds = %4
  %10 = sext i32 %3 to i64
  %11 = tail call i32 (ptr, i64, ptr, ...) @pg_snprintf(ptr noundef %2, i64 noundef %10, ptr noundef nonnull @.str.25, i32 noundef %0, i32 noundef %1) #14
  ret void
}